; ModuleID = '44/1100.c'
source_filename = "44/1100.c"
target datalayout = "e-m:e-p270:32:32-p271:32:32-p272:64:64-i64:64-f80:128-n8:16:32:64-S128"
target triple = "x86_64-pc-linux-gnu"

@.str = private unnamed_addr constant [3 x i8] c"%d\00", align 1
@.str.1 = private unnamed_addr constant [4 x i8] c"%d\0A\00", align 1

; Function Attrs: noinline nounwind uwtable
define dso_local i32 @reverse(i32 %0) #0 {
  %2 = alloca i32, align 4
  %3 = alloca i32, align 4
  %4 = alloca i32, align 4
  %5 = alloca i32, align 4
  %6 = alloca i32, align 4
  store i32 %0, i32* %2, align 4
  store i32 0, i32* %3, align 4
  %7 = load i32, i32* %2, align 4
  store i32 %7, i32* %4, align 4
  %8 = load i32, i32* %2, align 4
  %9 = icmp sgt i32 %8, 0
  br i1 %9, label %10, label %12

10:                                               ; preds = %1
  %11 = load i32, i32* %2, align 4
  store i32 %11, i32* %2, align 4
  br label %19

12:                                               ; preds = %1
  %13 = load i32, i32* %2, align 4
  %14 = icmp slt i32 %13, 0
  br i1 %14, label %15, label %18

15:                                               ; preds = %12
  %16 = load i32, i32* %2, align 4
  %17 = sub nsw i32 0, %16
  store i32 %17, i32* %2, align 4
  br label %18

18:                                               ; preds = %15, %12
  br label %19

19:                                               ; preds = %18, %10
  store i32 1, i32* %5, align 4
  br label %20

20:                                               ; preds = %34, %19
  %21 = load i32, i32* %2, align 4
  %22 = icmp ne i32 %21, 0
  br i1 %22, label %23, label %37

23:                                               ; preds = %20
  %24 = load i32, i32* %2, align 4
  %25 = srem i32 %24, 10
  store i32 %25, i32* %6, align 4
  %26 = load i32, i32* %2, align 4
  %27 = load i32, i32* %6, align 4
  %28 = sub nsw i32 %26, %27
  %29 = sdiv i32 %28, 10
  store i32 %29, i32* %2, align 4
  %30 = load i32, i32* %3, align 4
  %31 = mul nsw i32 %30, 10
  %32 = load i32, i32* %6, align 4
  %33 = add nsw i32 %31, %32
  store i32 %33, i32* %3, align 4
  br label %34

34:                                               ; preds = %23
  %35 = load i32, i32* %5, align 4
  %36 = add nsw i32 %35, 1
  store i32 %36, i32* %5, align 4
  br label %20

37:                                               ; preds = %20
  %38 = load i32, i32* %4, align 4
  %39 = icmp eq i32 %38, 0
  br i1 %39, label %43, label %40

40:                                               ; preds = %37
  %41 = load i32, i32* %4, align 4
  %42 = icmp eq i32 %41, 0
  br i1 %42, label %43, label %44

43:                                               ; preds = %40, %37
  store i32 0, i32* %3, align 4
  br label %57

44:                                               ; preds = %40
  %45 = load i32, i32* %4, align 4
  %46 = icmp sgt i32 %45, 0
  br i1 %46, label %47, label %49

47:                                               ; preds = %44
  %48 = load i32, i32* %3, align 4
  store i32 %48, i32* %3, align 4
  br label %56

49:                                               ; preds = %44
  %50 = load i32, i32* %4, align 4
  %51 = icmp slt i32 %50, 0
  br i1 %51, label %52, label %55

52:                                               ; preds = %49
  %53 = load i32, i32* %3, align 4
  %54 = sub nsw i32 0, %53
  store i32 %54, i32* %3, align 4
  br label %55

55:                                               ; preds = %52, %49
  br label %56

56:                                               ; preds = %55, %47
  br label %57

57:                                               ; preds = %56, %43
  %58 = load i32, i32* %3, align 4
  ret i32 %58
}

; Function Attrs: noinline nounwind uwtable
define dso_local i32 @main() #0 {
  %1 = alloca i32, align 4
  %2 = alloca [6 x i32], align 16
  %3 = alloca i32, align 4
  %4 = alloca i32, align 4
  store i32 0, i32* %1, align 4
  store i32 0, i32* %3, align 4
  br label %5

5:                                                ; preds = %13, %0
  %6 = load i32, i32* %3, align 4
  %7 = icmp slt i32 %6, 6
  br i1 %7, label %8, label %16

8:                                                ; preds = %5
  %9 = load i32, i32* %3, align 4
  %10 = sext i32 %9 to i64
  %11 = getelementptr inbounds [6 x i32], [6 x i32]* %2, i64 0, i64 %10
  %12 = call i32 (i8*, ...) @__isoc99_scanf(i8* getelementptr inbounds ([3 x i8], [3 x i8]* @.str, i64 0, i64 0), i32* %11)
  br label %13

13:                                               ; preds = %8
  %14 = load i32, i32* %3, align 4
  %15 = add nsw i32 %14, 1
  store i32 %15, i32* %3, align 4
  br label %5

16:                                               ; preds = %5
  store i32 0, i32* %4, align 4
  br label %17

17:                                               ; preds = %27, %16
  %18 = load i32, i32* %4, align 4
  %19 = icmp slt i32 %18, 6
  br i1 %19, label %20, label %30

20:                                               ; preds = %17
  %21 = load i32, i32* %4, align 4
  %22 = sext i32 %21 to i64
  %23 = getelementptr inbounds [6 x i32], [6 x i32]* %2, i64 0, i64 %22
  %24 = load i32, i32* %23, align 4
  %25 = call i32 @reverse(i32 %24)
  %26 = call i32 (i8*, ...) @printf(i8* getelementptr inbounds ([4 x i8], [4 x i8]* @.str.1, i64 0, i64 0), i32 %25)
  br label %27

27:                                               ; preds = %20
  %28 = load i32, i32* %4, align 4
  %29 = add nsw i32 %28, 1
  store i32 %29, i32* %4, align 4
  br label %17

30:                                               ; preds = %17
  %31 = call i32 @getchar()
  %32 = call i32 @getchar()
  %33 = call i32 @getchar()
  %34 = load i32, i32* %1, align 4
  ret i32 %34
}

declare dso_local i32 @__isoc99_scanf(i8*, ...) #1

declare dso_local i32 @printf(i8*, ...) #1

declare dso_local i32 @getchar() #1


!llvm.module.flags = !{!0}
!llvm.ident = !{!1}

!0 = !{i32 1, !"wchar_size", i32 4}
!1 = !{!"clang version 10.0.0-4ubuntu1 "}
